; Function Attrs: nofree norecurse nosync nounwind memory(readwrite, inaccessiblemem: none) uwtable
define void @lv_event_mark_deleted(ptr noundef readnone captures(address) %0) local_unnamed_addr #10 {
  %.08 = load ptr, ptr getelementptr inbounds nuw (i8, ptr @lv_global, i64 200), align 8, !tbaa !53
  %.not9 = icmp eq ptr %.08, null
  br i1 %.not9, label %._crit_edge, label %.lr.ph

.lr.ph:                                           ; preds = %1, %12
  %.010 = phi ptr [ %.0, %12 ], [ %.08, %1 ]
  %2 = getelementptr inbounds nuw i8, ptr %.010, i64 8
  %3 = load ptr, ptr %2, align 8, !tbaa !50
  %4 = icmp eq ptr %3, %0
  br i1 %4, label %8, label %5

5:                                                ; preds = %.lr.ph
  %6 = load ptr, ptr %.010, align 8, !tbaa !49
  %7 = icmp eq ptr %6, %0
  br i1 %7, label %8, label %12

8:                                                ; preds = %5, %.lr.ph
  %9 = getelementptr inbounds nuw i8, ptr %.010, i64 48
  %10 = load i8, ptr %9, align 8
  %11 = or i8 %10, 1
  store i8 %11, ptr %9, align 8
  br label %12

12:                                               ; preds = %8, %5
  %13 = getelementptr inbounds nuw i8, ptr %.010, i64 40
  %.0 = load ptr, ptr %13, align 8, !tbaa !53
  %.not = icmp eq ptr %.0, null
  br i1 %.not, label %._crit_edge, label %.lr.ph, !llvm.loop !54

._crit_edge:                                      ; preds = %12, %1
  ret void
}